target datalayout = "e-m:e-p270:32:32-p271:32:32-p272:64:64-i64:64-i128:128-f80:128-n8:16:32:64-S128"
target triple = "x86_64-pc-linux-gnu"

%struct.siv128_context = type { %union.siv_block_u, %union.siv_block_u, ptr, ptr, ptr, i32, i32 }
%union.siv_block_u = type { [2 x i64] }

; Function Attrs: inlinehint nounwind uwtable
define internal i32 @rotr8(i32 noundef %0) #5 {
  %2 = alloca i32, align 4
  store i32 %0, ptr %2, align 4, !tbaa !8
  %3 = load i32, ptr %2, align 4, !tbaa !8
  %4 = lshr i32 %3, 8
  %5 = load i32, ptr %2, align 4, !tbaa !8
  %6 = shl i32 %5, 24
  %7 = or i32 %4, %6
  ret i32 %7
}

; Function Attrs: inlinehint nounwind uwtable
define internal i32 @rotl8(i32 noundef %0) #5 {
  %2 = alloca i32, align 4
  store i32 %0, ptr %2, align 4, !tbaa !8
  %3 = load i32, ptr %2, align 4, !tbaa !8
  %4 = shl i32 %3, 8
  %5 = load i32, ptr %2, align 4, !tbaa !8
  %6 = lshr i32 %5, 24
  %7 = or i32 %4, %6
  ret i32 %7
}

; Function Attrs: inlinehint nounwind uwtable
define internal i64 @byteswap8(i64 noundef %0) #5 {
  %2 = alloca i64, align 8
  %3 = alloca i32, align 4
  %4 = alloca i32, align 4
  store i64 %0, ptr %2, align 8, !tbaa !16
  call void @llvm.lifetime.start.p0(i64 4, ptr %3) #6
  %5 = load i64, ptr %2, align 8, !tbaa !16
  %6 = lshr i64 %5, 32
  %7 = trunc i64 %6 to i32
  store i32 %7, ptr %3, align 4, !tbaa !8
  call void @llvm.lifetime.start.p0(i64 4, ptr %4) #6
  %8 = load i64, ptr %2, align 8, !tbaa !16
  %9 = trunc i64 %8 to i32
  store i32 %9, ptr %4, align 4, !tbaa !8
  %10 = load i32, ptr %3, align 4, !tbaa !8
  %11 = call i32 @rotl8(i32 noundef %10)
  %12 = and i32 %11, 16711935
  %13 = load i32, ptr %3, align 4, !tbaa !8
  %14 = call i32 @rotr8(i32 noundef %13)
  %15 = and i32 %14, -16711936
  %16 = or i32 %12, %15
  store i32 %16, ptr %3, align 4, !tbaa !8
  %17 = load i32, ptr %4, align 4, !tbaa !8
  %18 = call i32 @rotl8(i32 noundef %17)
  %19 = and i32 %18, 16711935
  %20 = load i32, ptr %4, align 4, !tbaa !8
  %21 = call i32 @rotr8(i32 noundef %20)
  %22 = and i32 %21, -16711936
  %23 = or i32 %19, %22
  store i32 %23, ptr %4, align 4, !tbaa !8
  %24 = load i32, ptr %4, align 4, !tbaa !8
  %25 = zext i32 %24 to i64
  %26 = shl i64 %25, 32
  %27 = load i32, ptr %3, align 4, !tbaa !8
  %28 = zext i32 %27 to i64
  %29 = or i64 %26, %28
  call void @llvm.lifetime.end.p0(i64 4, ptr %4) #6
  call void @llvm.lifetime.end.p0(i64 4, ptr %3) #6
  ret i64 %29
}

; Function Attrs: inlinehint nounwind uwtable
define internal void @siv128_putword(ptr noundef %0, i64 noundef %1, i64 noundef %2) #5 {
  %4 = alloca ptr, align 8
  %5 = alloca i64, align 8
  %6 = alloca i64, align 8
  %7 = alloca i32, align 4
  store ptr %0, ptr %4, align 8, !tbaa !30
  store i64 %1, ptr %5, align 8, !tbaa !16
  store i64 %2, ptr %6, align 8, !tbaa !16
  call void @llvm.lifetime.start.p0(i64 4, ptr %7) #6
  store i32 1, ptr %7, align 4, !tbaa !8
  %8 = load i64, ptr %6, align 8, !tbaa !16
  %9 = call i64 @byteswap8(i64 noundef %8)
  %10 = load ptr, ptr %4, align 8, !tbaa !30
  %11 = load i64, ptr %5, align 8, !tbaa !16
  %12 = getelementptr inbounds nuw [2 x i64], ptr %10, i64 0, i64 %11
  store i64 %9, ptr %12, align 8, !tbaa !32
  call void @llvm.lifetime.end.p0(i64 4, ptr %7) #6
  ret void
}

; Function Attrs: inlinehint nounwind uwtable
define internal i64 @siv128_getword(ptr noundef %0, i64 noundef %1) #5 {
  %3 = alloca ptr, align 8
  %4 = alloca i64, align 8
  %5 = alloca i32, align 4
  store ptr %0, ptr %3, align 8, !tbaa !30
  store i64 %1, ptr %4, align 8, !tbaa !16
  call void @llvm.lifetime.start.p0(i64 4, ptr %5) #6
  store i32 1, ptr %5, align 4, !tbaa !8
  %6 = load ptr, ptr %3, align 8, !tbaa !30
  %7 = load i64, ptr %4, align 8, !tbaa !16
  %8 = getelementptr inbounds nuw [2 x i64], ptr %6, i64 0, i64 %7
  %9 = load i64, ptr %8, align 8, !tbaa !32
  %10 = call i64 @byteswap8(i64 noundef %9)
  call void @llvm.lifetime.end.p0(i64 4, ptr %5) #6
  ret i64 %10
}

; Function Attrs: inlinehint nounwind uwtable
define internal void @siv128_xorblock(ptr noundef %0, ptr noundef %1) #5 {
  %3 = alloca ptr, align 8
  %4 = alloca ptr, align 8
  store ptr %0, ptr %3, align 8, !tbaa !30
  store ptr %1, ptr %4, align 8, !tbaa !30
  %5 = load ptr, ptr %4, align 8, !tbaa !30
  %6 = getelementptr inbounds [2 x i64], ptr %5, i64 0, i64 0
  %7 = load i64, ptr %6, align 8, !tbaa !32
  %8 = load ptr, ptr %3, align 8, !tbaa !30
  %9 = getelementptr inbounds [2 x i64], ptr %8, i64 0, i64 0
  %10 = load i64, ptr %9, align 8, !tbaa !32
  %11 = xor i64 %10, %7
  store i64 %11, ptr %9, align 8, !tbaa !32
  %12 = load ptr, ptr %4, align 8, !tbaa !30
  %13 = getelementptr inbounds [2 x i64], ptr %12, i64 0, i64 1
  %14 = load i64, ptr %13, align 8, !tbaa !32
  %15 = load ptr, ptr %3, align 8, !tbaa !30
  %16 = getelementptr inbounds [2 x i64], ptr %15, i64 0, i64 1
  %17 = load i64, ptr %16, align 8, !tbaa !32
  %18 = xor i64 %17, %14
  store i64 %18, ptr %16, align 8, !tbaa !32
  ret void
}

; Function Attrs: inlinehint nounwind uwtable
define internal void @siv128_dbl(ptr noundef %0) #5 {
  %2 = alloca ptr, align 8
  %3 = alloca i64, align 8
  %4 = alloca i64, align 8
  %5 = alloca i64, align 8
  %6 = alloca i64, align 8
  %7 = alloca i64, align 8
  %8 = alloca i64, align 8
  store ptr %0, ptr %2, align 8, !tbaa !30
  call void @llvm.lifetime.start.p0(i64 8, ptr %3) #6
  %9 = load ptr, ptr %2, align 8, !tbaa !30
  %10 = call i64 @siv128_getword(ptr noundef %9, i64 noundef 0)
  store i64 %10, ptr %3, align 8, !tbaa !16
  call void @llvm.lifetime.start.p0(i64 8, ptr %4) #6
  %11 = load ptr, ptr %2, align 8, !tbaa !30
  %12 = call i64 @siv128_getword(ptr noundef %11, i64 noundef 1)
  store i64 %12, ptr %4, align 8, !tbaa !16
  call void @llvm.lifetime.start.p0(i64 8, ptr %5) #6
  %13 = load i64, ptr %3, align 8, !tbaa !16
  %14 = and i64 %13, -9223372036854775808
  store i64 %14, ptr %5, align 8, !tbaa !16
  call void @llvm.lifetime.start.p0(i64 8, ptr %6) #6
  %15 = load i64, ptr %4, align 8, !tbaa !16
  %16 = and i64 %15, -9223372036854775808
  store i64 %16, ptr %6, align 8, !tbaa !16
  call void @llvm.lifetime.start.p0(i64 8, ptr %7) #6
  %17 = load i64, ptr %5, align 8, !tbaa !16
  %18 = lshr i64 %17, 63
  %19 = sub nsw i64 0, %18
  %20 = and i64 %19, 135
  store i64 %20, ptr %7, align 8, !tbaa !16
  call void @llvm.lifetime.start.p0(i64 8, ptr %8) #6
  %21 = load i64, ptr %6, align 8, !tbaa !16
  %22 = lshr i64 %21, 63
  store i64 %22, ptr %8, align 8, !tbaa !16
  %23 = load i64, ptr %3, align 8, !tbaa !16
  %24 = shl i64 %23, 1
  %25 = load i64, ptr %8, align 8, !tbaa !16
  %26 = or i64 %24, %25
  store i64 %26, ptr %3, align 8, !tbaa !16
  %27 = load i64, ptr %4, align 8, !tbaa !16
  %28 = shl i64 %27, 1
  %29 = load i64, ptr %7, align 8, !tbaa !16
  %30 = xor i64 %28, %29
  store i64 %30, ptr %4, align 8, !tbaa !16
  %31 = load ptr, ptr %2, align 8, !tbaa !30
  %32 = load i64, ptr %3, align 8, !tbaa !16
  call void @siv128_putword(ptr noundef %31, i64 noundef 0, i64 noundef %32)
  %33 = load ptr, ptr %2, align 8, !tbaa !30
  %34 = load i64, ptr %4, align 8, !tbaa !16
  call void @siv128_putword(ptr noundef %33, i64 noundef 1, i64 noundef %34)
  call void @llvm.lifetime.end.p0(i64 8, ptr %8) #6
  call void @llvm.lifetime.end.p0(i64 8, ptr %7) #6
  call void @llvm.lifetime.end.p0(i64 8, ptr %6) #6
  call void @llvm.lifetime.end.p0(i64 8, ptr %5) #6
  call void @llvm.lifetime.end.p0(i64 8, ptr %4) #6
  call void @llvm.lifetime.end.p0(i64 8, ptr %3) #6
  ret void
}

; Function Attrs: nounwind uwtable
define i32 @ossl_siv128_aad(ptr noundef %0, ptr noundef %1, i64 noundef %2) #0 {
  %4 = alloca i32, align 4
  %5 = alloca ptr, align 8
  %6 = alloca ptr, align 8
  %7 = alloca i64, align 8
  %8 = alloca %union.siv_block_u, align 8
  %9 = alloca i64, align 8
  %10 = alloca ptr, align 8
  %11 = alloca i32, align 4
  store ptr %0, ptr %5, align 8, !tbaa !14
  store ptr %1, ptr %6, align 8, !tbaa !3
  store i64 %2, ptr %7, align 8, !tbaa !16
  call void @llvm.lifetime.start.p0(i64 16, ptr %8) #6
  call void @llvm.lifetime.start.p0(i64 8, ptr %9) #6
  store i64 16, ptr %9, align 8, !tbaa !16
  call void @llvm.lifetime.start.p0(i64 8, ptr %10) #6
  %12 = load ptr, ptr %5, align 8, !tbaa !14
  %13 = getelementptr inbounds nuw %struct.siv128_context, ptr %12, i32 0, i32 0
  call void @siv128_dbl(ptr noundef %13)
  %14 = load ptr, ptr %5, align 8, !tbaa !14
  %15 = getelementptr inbounds nuw %struct.siv128_context, ptr %14, i32 0, i32 4
  %16 = load ptr, ptr %15, align 8, !tbaa !24
  %17 = call ptr @EVP_MAC_CTX_dup(ptr noundef %16)
  store ptr %17, ptr %10, align 8, !tbaa !18
  %18 = icmp eq ptr %17, null
  br i1 %18, label %33, label %19

19:                                               ; preds = %3
  %20 = load ptr, ptr %10, align 8, !tbaa !18
  %21 = load ptr, ptr %6, align 8, !tbaa !3
  %22 = load i64, ptr %7, align 8, !tbaa !16
  %23 = call i32 @EVP_MAC_update(ptr noundef %20, ptr noundef %21, i64 noundef %22)
  %24 = icmp ne i32 %23, 0
  br i1 %24, label %25, label %33

25:                                               ; preds = %19
  %26 = load ptr, ptr %10, align 8, !tbaa !18
  %27 = getelementptr inbounds [16 x i8], ptr %8, i64 0, i64 0
  %28 = call i32 @EVP_MAC_final(ptr noundef %26, ptr noundef %27, ptr noundef %9, i64 noundef 16)
  %29 = icmp ne i32 %28, 0
  br i1 %29, label %30, label %33

30:                                               ; preds = %25
  %31 = load i64, ptr %9, align 8, !tbaa !16
  %32 = icmp ne i64 %31, 16
  br i1 %32, label %33, label %35

33:                                               ; preds = %30, %25, %19, %3
  %34 = load ptr, ptr %10, align 8, !tbaa !18
  call void @EVP_MAC_CTX_free(ptr noundef %34)
  store i32 0, ptr %4, align 4
  store i32 1, ptr %11, align 4
  br label %39

35:                                               ; preds = %30
  %36 = load ptr, ptr %10, align 8, !tbaa !18
  call void @EVP_MAC_CTX_free(ptr noundef %36)
  %37 = load ptr, ptr %5, align 8, !tbaa !14
  %38 = getelementptr inbounds nuw %struct.siv128_context, ptr %37, i32 0, i32 0
  call void @siv128_xorblock(ptr noundef %38, ptr noundef %8)
  store i32 1, ptr %4, align 4
  store i32 1, ptr %11, align 4
  br label %39

39:                                               ; preds = %35, %33
  call void @llvm.lifetime.end.p0(i64 8, ptr %10) #6
  call void @llvm.lifetime.end.p0(i64 8, ptr %9) #6
  call void @llvm.lifetime.end.p0(i64 16, ptr %8) #6
  %40 = load i32, ptr %4, align 4
  ret i32 %40
}