; Function Attrs: nounwind uwtable
define range(i32 0, 2) i32 @ossl_siv128_aad(ptr noundef captures(none) %0, ptr noundef %1, i64 noundef %2) local_unnamed_addr #0 {
  %4 = alloca %union.siv_block_u, align 8
  %5 = alloca i64, align 8
  call void @llvm.lifetime.start.p0(i64 16, ptr nonnull %4) #10
  call void @llvm.lifetime.start.p0(i64 8, ptr nonnull %5) #10
  store i64 16, ptr %5, align 8, !tbaa !3
  %6 = load i64, ptr %0, align 8, !tbaa !23
  %7 = tail call noundef i64 @llvm.bswap.i64(i64 %6)
  %8 = getelementptr inbounds nuw i8, ptr %0, i64 8
  %9 = load i64, ptr %8, align 8, !tbaa !23
  %10 = tail call noundef i64 @llvm.bswap.i64(i64 %9)
  %isneg.i = icmp slt i64 %7, 0
  %11 = select i1 %isneg.i, i64 135, i64 0
  %12 = tail call i64 @llvm.fshl.i64(i64 %7, i64 %10, i64 1)
  %13 = shl i64 %10, 1
  %14 = xor i64 %13, %11
  %15 = tail call noundef i64 @llvm.bswap.i64(i64 %12)
  store i64 %15, ptr %0, align 8, !tbaa !23
  %16 = tail call noundef i64 @llvm.bswap.i64(i64 %14)
  store i64 %16, ptr %8, align 8, !tbaa !23
  %17 = getelementptr inbounds nuw i8, ptr %0, i64 48
  %18 = load ptr, ptr %17, align 8, !tbaa !14
  %19 = tail call ptr @EVP_MAC_CTX_dup(ptr noundef %18) #10
  %20 = icmp eq ptr %19, null
  br i1 %20, label %28, label %21

21:                                               ; preds = %3
  %22 = tail call i32 @EVP_MAC_update(ptr noundef nonnull %19, ptr noundef %1, i64 noundef %2) #10
  %.not = icmp eq i32 %22, 0
  br i1 %.not, label %28, label %23

23:                                               ; preds = %21
  %24 = call i32 @EVP_MAC_final(ptr noundef nonnull %19, ptr noundef nonnull %4, ptr noundef nonnull %5, i64 noundef 16) #10
  %25 = icmp eq i32 %24, 0
  %26 = load i64, ptr %5, align 8
  %27 = icmp ne i64 %26, 16
  %or.cond = select i1 %25, i1 true, i1 %27
  br i1 %or.cond, label %28, label %29

28:                                               ; preds = %23, %21, %3
  call void @EVP_MAC_CTX_free(ptr noundef %19) #10
  br label %37

29:                                               ; preds = %23
  call void @EVP_MAC_CTX_free(ptr noundef nonnull %19) #10
  %30 = load i64, ptr %4, align 8, !tbaa !23
  %31 = load i64, ptr %0, align 8, !tbaa !23
  %32 = xor i64 %31, %30
  store i64 %32, ptr %0, align 8, !tbaa !23
  %33 = getelementptr inbounds nuw i8, ptr %4, i64 8
  %34 = load i64, ptr %33, align 8, !tbaa !23
  %35 = load i64, ptr %8, align 8, !tbaa !23
  %36 = xor i64 %35, %34
  store i64 %36, ptr %8, align 8, !tbaa !23
  br label %37

37:                                               ; preds = %29, %28
  %.0 = phi i32 [ 0, %28 ], [ 1, %29 ]
  call void @llvm.lifetime.end.p0(i64 8, ptr nonnull %5) #10
  call void @llvm.lifetime.end.p0(i64 16, ptr nonnull %4) #10
  ret i32 %.0
}